; Function Attrs: mustprogress uwtable
define void @_ZN14MenuEditActionC2E7QStringS0_P7QObject(ptr noundef nonnull align 8 dereferenceable(72) %0, ptr nocapture noundef readonly %1, ptr nocapture noundef readonly %2, ptr noundef %3) unnamed_addr #0 align 2 personality ptr @__gxx_personality_v0 {
  tail call void @_ZN13QWidgetActionC2EP7QObject(ptr noundef nonnull align 8 dereferenceable(16) %0, ptr noundef %3)
  store ptr getelementptr inbounds ({ [16 x ptr] }, ptr @_ZTV14MenuEditAction, i64 0, i32 0, i64 2), ptr %0, align 8
  %5 = getelementptr inbounds i8, ptr %0, i64 16
  %6 = load ptr, ptr %2, align 8
  store ptr %6, ptr %5, align 8
  %7 = getelementptr inbounds i8, ptr %0, i64 24
  %8 = getelementptr inbounds i8, ptr %2, i64 8
  %9 = load ptr, ptr %8, align 8
  store ptr %9, ptr %7, align 8
  %10 = getelementptr inbounds i8, ptr %0, i64 32
  %11 = getelementptr inbounds i8, ptr %2, i64 16
  %12 = load i64, ptr %11, align 8
  store i64 %12, ptr %10, align 8
  %.not.i.i.i = icmp eq ptr %6, null
  br i1 %.not.i.i.i, label %_ZN7QStringC2ERKS_.exit, label %13

13:                                               ; preds = %4
  %14 = atomicrmw add ptr %6, i32 1 seq_cst, align 4
  br label %_ZN7QStringC2ERKS_.exit

_ZN7QStringC2ERKS_.exit:                          ; preds = %4, %13
  %15 = getelementptr inbounds i8, ptr %0, i64 40
  %16 = load ptr, ptr %1, align 8
  store ptr %16, ptr %15, align 8
  %17 = getelementptr inbounds i8, ptr %0, i64 48
  %18 = getelementptr inbounds i8, ptr %1, i64 8
  %19 = load ptr, ptr %18, align 8
  store ptr %19, ptr %17, align 8
  %20 = getelementptr inbounds i8, ptr %0, i64 56
  %21 = getelementptr inbounds i8, ptr %1, i64 16
  %22 = load i64, ptr %21, align 8
  store i64 %22, ptr %20, align 8
  %.not.i.i.i2 = icmp eq ptr %16, null
  br i1 %.not.i.i.i2, label %_ZN7QStringC2ERKS_.exit3, label %23

23:                                               ; preds = %_ZN7QStringC2ERKS_.exit
  %24 = atomicrmw add ptr %16, i32 1 seq_cst, align 4
  br label %_ZN7QStringC2ERKS_.exit3

_ZN7QStringC2ERKS_.exit3:                         ; preds = %_ZN7QStringC2ERKS_.exit, %23
  %25 = getelementptr inbounds i8, ptr %0, i64 64
  store ptr null, ptr %25, align 8
  ret void
}